target datalayout = "e-m:e-p270:32:32-p271:32:32-p272:64:64-i64:64-i128:128-f80:128-n8:16:32:64-S128"
target triple = "x86_64-pc-linux-gnu"

@.str.360 = private unnamed_addr constant [46 x i8] c"../cpython/Modules/_testlimitedcapi/unicode.c\00", align 1
@.str.379 = private unnamed_addr constant [31 x i8] c"consumed == UNINITIALIZED_SIZE\00", align 1
@.str.380 = private unnamed_addr constant [6 x i8] c"iy#|z\00", align 1
@__PRETTY_FUNCTION__.unicode_decodeutf16stateful = private unnamed_addr constant [62 x i8] c"PyObject *unicode_decodeutf16stateful(PyObject *, PyObject *)\00", align 1
@.str.382 = private unnamed_addr constant [6 x i8] c"(iNn)\00", align 1

; Function Attrs: nounwind uwtable
define internal ptr @unicode_decodeutf16stateful(ptr noundef %0, ptr noundef %1) #0 {
  %3 = alloca ptr, align 8
  %4 = alloca ptr, align 8
  %5 = alloca ptr, align 8
  %6 = alloca ptr, align 8
  %7 = alloca i64, align 8
  %8 = alloca ptr, align 8
  %9 = alloca i32, align 4
  %10 = alloca i64, align 8
  %11 = alloca ptr, align 8
  %12 = alloca i32, align 4
  store ptr %0, ptr %4, align 8, !tbaa !3
  store ptr %1, ptr %5, align 8, !tbaa !3
  call void @llvm.lifetime.start.p0(i64 8, ptr %6) #7
  call void @llvm.lifetime.start.p0(i64 8, ptr %7) #7
  call void @llvm.lifetime.start.p0(i64 8, ptr %8) #7
  store ptr null, ptr %8, align 8, !tbaa !8
  call void @llvm.lifetime.start.p0(i64 4, ptr %9) #7
  store i32 63256717, ptr %9, align 4, !tbaa !10
  call void @llvm.lifetime.start.p0(i64 8, ptr %10) #7
  store i64 236892191, ptr %10, align 8, !tbaa !12
  call void @llvm.lifetime.start.p0(i64 8, ptr %11) #7
  %13 = load ptr, ptr %5, align 8, !tbaa !3
  %14 = call i32 (ptr, ptr, ...) @PyArg_ParseTuple(ptr noundef %13, ptr noundef @.str.380, ptr noundef %9, ptr noundef %6, ptr noundef %7, ptr noundef %8)
  %15 = icmp ne i32 %14, 0
  br i1 %15, label %17, label %16

16:                                               ; preds = %2
  store ptr null, ptr %3, align 8
  store i32 1, ptr %12, align 4
  br label %36

17:                                               ; preds = %2
  %18 = load ptr, ptr %6, align 8, !tbaa !8
  %19 = load i64, ptr %7, align 8, !tbaa !12
  %20 = load ptr, ptr %8, align 8, !tbaa !8
  %21 = call ptr @PyUnicode_DecodeUTF16Stateful(ptr noundef %18, i64 noundef %19, ptr noundef %20, ptr noundef %9, ptr noundef %10)
  store ptr %21, ptr %11, align 8, !tbaa !3
  %22 = load ptr, ptr %11, align 8, !tbaa !3
  %23 = icmp ne ptr %22, null
  br i1 %23, label %31, label %24

24:                                               ; preds = %17
  %25 = load i64, ptr %10, align 8, !tbaa !12
  %26 = icmp eq i64 %25, 236892191
  br i1 %26, label %27, label %28

27:                                               ; preds = %24
  br label %30

28:                                               ; preds = %24
  call void @__assert_fail(ptr noundef @.str.379, ptr noundef @.str.360, i32 noundef 743, ptr noundef @__PRETTY_FUNCTION__.unicode_decodeutf16stateful) #8
  unreachable

29:                                               ; No predecessors!
  br label %30

30:                                               ; preds = %29, %27
  store ptr null, ptr %3, align 8
  store i32 1, ptr %12, align 4
  br label %36

31:                                               ; preds = %17
  %32 = load i32, ptr %9, align 4, !tbaa !10
  %33 = load ptr, ptr %11, align 8, !tbaa !3
  %34 = load i64, ptr %10, align 8, !tbaa !12
  %35 = call ptr (ptr, ...) @Py_BuildValue(ptr noundef @.str.382, i32 noundef %32, ptr noundef %33, i64 noundef %34)
  store ptr %35, ptr %3, align 8
  store i32 1, ptr %12, align 4
  br label %36

36:                                               ; preds = %31, %30, %16
  call void @llvm.lifetime.end.p0(i64 8, ptr %11) #7
  call void @llvm.lifetime.end.p0(i64 8, ptr %10) #7
  call void @llvm.lifetime.end.p0(i64 4, ptr %9) #7
  call void @llvm.lifetime.end.p0(i64 8, ptr %8) #7
  call void @llvm.lifetime.end.p0(i64 8, ptr %7) #7
  call void @llvm.lifetime.end.p0(i64 8, ptr %6) #7
  %37 = load ptr, ptr %3, align 8
  ret ptr %37
}